target datalayout = "e-m:e-p270:32:32-p271:32:32-p272:64:64-i64:64-i128:128-f80:128-n8:16:32:64-S128"
target triple = "x86_64-pc-linux-gnu"

; Function Attrs: nounwind uwtable
define internal i32 @dh_export(ptr noundef %0, i32 noundef %1, ptr noundef %2, ptr noundef %3) #0 {
  %5 = alloca i32, align 4
  %6 = alloca ptr, align 8
  %7 = alloca i32, align 4
  %8 = alloca ptr, align 8
  %9 = alloca ptr, align 8
  %10 = alloca ptr, align 8
  %11 = alloca ptr, align 8
  %12 = alloca ptr, align 8
  %13 = alloca i32, align 4
  %14 = alloca i32, align 4
  %15 = alloca i32, align 4
  store ptr %0, ptr %6, align 8, !tbaa !3
  store i32 %1, ptr %7, align 4, !tbaa !9
  store ptr %2, ptr %8, align 8, !tbaa !3
  store ptr %3, ptr %9, align 8, !tbaa !3
  call void @llvm.lifetime.start.p0(i64 8, ptr %10) #8
  %16 = load ptr, ptr %6, align 8, !tbaa !3
  store ptr %16, ptr %10, align 8, !tbaa !7
  call void @llvm.lifetime.start.p0(i64 8, ptr %11) #8
  store ptr null, ptr %11, align 8, !tbaa !53
  call void @llvm.lifetime.start.p0(i64 8, ptr %12) #8
  store ptr null, ptr %12, align 8, !tbaa !11
  call void @llvm.lifetime.start.p0(i64 4, ptr %13) #8
  store i32 1, ptr %13, align 4, !tbaa !9
  %17 = call i32 @ossl_prov_is_running()
  %18 = icmp ne i32 %17, 0
  br i1 %18, label %19, label %22

19:                                               ; preds = %4
  %20 = load ptr, ptr %10, align 8, !tbaa !7
  %21 = icmp eq ptr %20, null
  br i1 %21, label %22, label %23

22:                                               ; preds = %19, %4
  store i32 0, ptr %5, align 4
  store i32 1, ptr %14, align 4
  br label %85

23:                                               ; preds = %19
  %24 = load i32, ptr %7, align 4, !tbaa !9
  %25 = and i32 %24, 7
  %26 = icmp eq i32 %25, 0
  br i1 %26, label %27, label %28

27:                                               ; preds = %23
  store i32 0, ptr %5, align 4
  store i32 1, ptr %14, align 4
  br label %85

28:                                               ; preds = %23
  %29 = call ptr @OSSL_PARAM_BLD_new()
  store ptr %29, ptr %11, align 8, !tbaa !53
  %30 = load ptr, ptr %11, align 8, !tbaa !53
  %31 = icmp eq ptr %30, null
  br i1 %31, label %32, label %33

32:                                               ; preds = %28
  store i32 0, ptr %5, align 4
  store i32 1, ptr %14, align 4
  br label %85

33:                                               ; preds = %28
  %34 = load i32, ptr %7, align 4, !tbaa !9
  %35 = and i32 %34, 132
  %36 = icmp ne i32 %35, 0
  br i1 %36, label %37, label %48

37:                                               ; preds = %33
  %38 = load i32, ptr %13, align 4, !tbaa !9
  %39 = icmp ne i32 %38, 0
  br i1 %39, label %40, label %45

40:                                               ; preds = %37
  %41 = load ptr, ptr %10, align 8, !tbaa !7
  %42 = load ptr, ptr %11, align 8, !tbaa !53
  %43 = call i32 @ossl_dh_params_todata(ptr noundef %41, ptr noundef %42, ptr noundef null)
  %44 = icmp ne i32 %43, 0
  br label %45

45:                                               ; preds = %40, %37
  %46 = phi i1 [ false, %37 ], [ %44, %40 ]
  %47 = zext i1 %46 to i32
  store i32 %47, ptr %13, align 4, !tbaa !9
  br label %48

48:                                               ; preds = %45, %33
  %49 = load i32, ptr %7, align 4, !tbaa !9
  %50 = and i32 %49, 3
  %51 = icmp ne i32 %50, 0
  br i1 %51, label %52, label %68

52:                                               ; preds = %48
  call void @llvm.lifetime.start.p0(i64 4, ptr %15) #8
  %53 = load i32, ptr %7, align 4, !tbaa !9
  %54 = and i32 %53, 1
  %55 = icmp ne i32 %54, 0
  %56 = select i1 %55, i32 1, i32 0
  store i32 %56, ptr %15, align 4, !tbaa !9
  %57 = load i32, ptr %13, align 4, !tbaa !9
  %58 = icmp ne i32 %57, 0
  br i1 %58, label %59, label %65

59:                                               ; preds = %52
  %60 = load ptr, ptr %10, align 8, !tbaa !7
  %61 = load ptr, ptr %11, align 8, !tbaa !53
  %62 = load i32, ptr %15, align 4, !tbaa !9
  %63 = call i32 @ossl_dh_key_todata(ptr noundef %60, ptr noundef %61, ptr noundef null, i32 noundef %62)
  %64 = icmp ne i32 %63, 0
  br label %65

65:                                               ; preds = %59, %52
  %66 = phi i1 [ false, %52 ], [ %64, %59 ]
  %67 = zext i1 %66 to i32
  store i32 %67, ptr %13, align 4, !tbaa !9
  call void @llvm.lifetime.end.p0(i64 4, ptr %15) #8
  br label %68

68:                                               ; preds = %65, %48
  %69 = load i32, ptr %13, align 4, !tbaa !9
  %70 = icmp ne i32 %69, 0
  br i1 %70, label %71, label %75

71:                                               ; preds = %68
  %72 = load ptr, ptr %11, align 8, !tbaa !53
  %73 = call ptr @OSSL_PARAM_BLD_to_param(ptr noundef %72)
  store ptr %73, ptr %12, align 8, !tbaa !11
  %74 = icmp eq ptr %73, null
  br i1 %74, label %75, label %76

75:                                               ; preds = %71, %68
  store i32 0, ptr %13, align 4, !tbaa !9
  br label %82

76:                                               ; preds = %71
  %77 = load ptr, ptr %8, align 8, !tbaa !3
  %78 = load ptr, ptr %12, align 8, !tbaa !11
  %79 = load ptr, ptr %9, align 8, !tbaa !3
  %80 = call i32 %77(ptr noundef %78, ptr noundef %79)
  store i32 %80, ptr %13, align 4, !tbaa !9
  %81 = load ptr, ptr %12, align 8, !tbaa !11
  call void @OSSL_PARAM_free(ptr noundef %81)
  br label %82

82:                                               ; preds = %76, %75
  %83 = load ptr, ptr %11, align 8, !tbaa !53
  call void @OSSL_PARAM_BLD_free(ptr noundef %83)
  %84 = load i32, ptr %13, align 4, !tbaa !9
  store i32 %84, ptr %5, align 4
  store i32 1, ptr %14, align 4
  br label %85

85:                                               ; preds = %82, %32, %27, %22
  call void @llvm.lifetime.end.p0(i64 4, ptr %13) #8
  call void @llvm.lifetime.end.p0(i64 8, ptr %12) #8
  call void @llvm.lifetime.end.p0(i64 8, ptr %11) #8
  call void @llvm.lifetime.end.p0(i64 8, ptr %10) #8
  %86 = load i32, ptr %5, align 4
  ret i32 %86
}