; Function Attrs: nounwind uwtable
define internal i32 @dh_export(ptr noundef %0, i32 noundef %1, ptr noundef readonly captures(none) %2, ptr noundef %3) #0 {
  %5 = tail call i32 @ossl_prov_is_running() #8
  %6 = icmp eq i32 %5, 0
  %7 = icmp eq ptr %0, null
  %or.cond = or i1 %7, %6
  %8 = and i32 %1, 7
  %9 = icmp eq i32 %8, 0
  %or.cond32 = or i1 %9, %or.cond
  br i1 %or.cond32, label %27, label %10

10:                                               ; preds = %4
  %11 = tail call ptr @OSSL_PARAM_BLD_new() #8
  %12 = icmp eq ptr %11, null
  br i1 %12, label %27, label %13

13:                                               ; preds = %10
  %14 = and i32 %1, 132
  %.not = icmp eq i32 %14, 0
  br i1 %.not, label %.thread, label %15

15:                                               ; preds = %13
  %16 = tail call i32 @ossl_dh_params_todata(ptr noundef nonnull %0, ptr noundef nonnull %11, ptr noundef null) #8
  %.not45 = icmp eq i32 %16, 0
  %17 = and i32 %1, 3
  %.not27 = icmp eq i32 %17, 0
  br i1 %.not27, label %22, label %19

.thread:                                          ; preds = %13
  %18 = and i32 %1, 3
  %.not2734 = icmp eq i32 %18, 0
  br i1 %.not2734, label %.thread42, label %.thread36

19:                                               ; preds = %15
  br i1 %.not45, label %.thread39, label %.thread36

.thread36:                                        ; preds = %.thread, %19
  %20 = and i32 %1, 1
  %21 = tail call i32 @ossl_dh_key_todata(ptr noundef nonnull %0, ptr noundef nonnull %11, ptr noundef null, i32 noundef %20) #8
  %.not46 = icmp eq i32 %21, 0
  br i1 %.not46, label %.thread39, label %.thread42

22:                                               ; preds = %15
  br i1 %.not45, label %.thread39, label %.thread42

.thread42:                                        ; preds = %.thread36, %.thread, %22
  %23 = tail call ptr @OSSL_PARAM_BLD_to_param(ptr noundef nonnull %11) #8
  %24 = icmp eq ptr %23, null
  br i1 %24, label %.thread39, label %25

25:                                               ; preds = %.thread42
  %26 = tail call i32 %2(ptr noundef nonnull %23, ptr noundef %3) #8
  tail call void @OSSL_PARAM_free(ptr noundef nonnull %23) #8
  br label %.thread39

.thread39:                                        ; preds = %.thread36, %19, %22, %.thread42, %25
  %.2 = phi i32 [ %26, %25 ], [ 0, %.thread42 ], [ 0, %22 ], [ 0, %19 ], [ 0, %.thread36 ]
  tail call void @OSSL_PARAM_BLD_free(ptr noundef nonnull %11) #8
  br label %27

27:                                               ; preds = %10, %4, %.thread39
  %.0 = phi i32 [ %.2, %.thread39 ], [ 0, %4 ], [ 0, %10 ]
  ret i32 %.0
}